; Function Attrs: nounwind uwtable
define noalias noundef nonnull ptr @l_Lean_withTraceNode___at___private_Lean_Elab_PreDefinition_Structural_IndPred_0__Lean_Elab_Structural_replaceIndPredRecApp___spec__20___lambda__2(ptr noundef %0, i8 noundef zeroext %1, ptr noundef %2, ptr noundef %3, ptr noundef %4, ptr noundef %5, i8 noundef zeroext %6, double noundef %7, double noundef %8, ptr noundef %9, ptr noundef readnone captures(none) %10, ptr noundef %11, ptr noundef %12, ptr noundef %13, ptr noundef %14, ptr noundef %15) local_unnamed_addr #0 {
  %17 = icmp eq i8 %6, 0
  br i1 %17, label %18, label %23

18:                                               ; preds = %16
  %19 = load double, ptr @l_Lean_addTrace___at___private_Lean_Elab_PreDefinition_Structural_IndPred_0__Lean_Elab_Structural_replaceIndPredRecApp___spec__3___closed__1, align 8, !tbaa !16
  tail call void @lean_inc_heartbeat() #4
  %20 = tail call noalias ptr @mi_malloc_small(i64 noundef 48) #4
  %21 = icmp eq ptr %20, null
  br i1 %21, label %22, label %lean_alloc_ctor.exit

22:                                               ; preds = %18
  tail call void @lean_internal_panic_out_of_memory() #5
  unreachable

23:                                               ; preds = %16
  tail call void @lean_inc_heartbeat() #4
  %24 = tail call noalias ptr @mi_malloc_small(i64 noundef 48) #4
  %25 = icmp eq ptr %24, null
  br i1 %25, label %26, label %lean_alloc_ctor.exit

26:                                               ; preds = %23
  tail call void @lean_internal_panic_out_of_memory() #5
  unreachable

lean_alloc_ctor.exit:                             ; preds = %23, %18
  %.sink64 = phi ptr [ %20, %18 ], [ %24, %23 ]
  %.sink53 = phi double [ %19, %18 ], [ %7, %23 ]
  %.sink50 = phi double [ %19, %18 ], [ %8, %23 ]
  %27 = getelementptr inbounds nuw i8, ptr %.sink64, i64 4
  %28 = getelementptr inbounds nuw i8, ptr %.sink64, i64 40
  store i64 0, ptr %28, align 8, !tbaa !11
  store i32 1, ptr %.sink64, align 4, !tbaa !4
  store i32 131120, ptr %27, align 4
  %29 = getelementptr inbounds nuw i8, ptr %.sink64, i64 8
  store ptr %0, ptr %29, align 8, !tbaa !9
  %30 = getelementptr inbounds nuw i8, ptr %.sink64, i64 16
  store ptr %2, ptr %30, align 8, !tbaa !9
  %31 = getelementptr inbounds nuw i8, ptr %.sink64, i64 24
  store double %.sink53, ptr %31, align 8, !tbaa !16
  %32 = getelementptr inbounds nuw i8, ptr %.sink64, i64 32
  store double %.sink50, ptr %32, align 8, !tbaa !16
  store i8 %1, ptr %28, align 1, !tbaa !19
  %33 = tail call ptr @l_Lean_withTraceNode___at___private_Lean_Elab_PreDefinition_Structural_IndPred_0__Lean_Elab_Structural_replaceIndPredRecApp___spec__20___lambda__1(ptr noundef %3, ptr noundef %4, ptr noundef %9, ptr noundef %5, ptr noundef nonnull %.sink64, ptr nonnull poison, ptr poison, ptr noundef %11, ptr noundef %12, ptr noundef %13, ptr noundef %14, ptr noundef %15)
  ret ptr %33
}